target datalayout = "e-m:e-p270:32:32-p271:32:32-p272:64:64-i64:64-i128:128-f80:128-n8:16:32:64-S128"
target triple = "x86_64-pc-linux-gnu"

%"class.llvm::MCInstrDesc" = type { i16, i16, i8, i8, i16, i8, i8, i16, i16, i64, i64 }
%"class.llvm::MCInstrInfo" = type <{ ptr, ptr, ptr, ptr, ptr, i32, [4 x i8] }>

; Function Attrs: mustprogress nounwind uwtable
define linkonce_odr hidden void @_ZN4llvm11MCInstrInfo15InitMCInstrInfoEPKNS_11MCInstrDescEPKjPKcPKhPKPFbRNS_6MCInstERKNS_15MCSubtargetInfoERNSt7__cxx1112basic_stringIcSt11char_traitsIcESaIcEEEEj(ptr noundef nonnull align 8 dereferenceable(44) %0, ptr noundef %1, ptr noundef %2, ptr noundef %3, ptr noundef %4, ptr noundef %5, i32 noundef %6) #0 comdat align 2 {
  %8 = alloca ptr, align 8
  %9 = alloca ptr, align 8
  %10 = alloca ptr, align 8
  %11 = alloca ptr, align 8
  %12 = alloca ptr, align 8
  %13 = alloca ptr, align 8
  %14 = alloca i32, align 4
  store ptr %0, ptr %8, align 8
  store ptr %1, ptr %9, align 8
  store ptr %2, ptr %10, align 8
  store ptr %3, ptr %11, align 8
  store ptr %4, ptr %12, align 8
  store ptr %5, ptr %13, align 8
  store i32 %6, ptr %14, align 4
  %15 = load ptr, ptr %8, align 8
  %16 = load ptr, ptr %9, align 8
  %17 = load i32, ptr %14, align 4
  %18 = zext i32 %17 to i64
  %19 = getelementptr inbounds %"class.llvm::MCInstrDesc", ptr %16, i64 %18
  %20 = getelementptr inbounds %"class.llvm::MCInstrDesc", ptr %19, i64 -1
  %21 = getelementptr inbounds nuw %"class.llvm::MCInstrInfo", ptr %15, i32 0, i32 0
  store ptr %20, ptr %21, align 8
  %22 = load ptr, ptr %10, align 8
  %23 = getelementptr inbounds nuw %"class.llvm::MCInstrInfo", ptr %15, i32 0, i32 1
  store ptr %22, ptr %23, align 8
  %24 = load ptr, ptr %11, align 8
  %25 = getelementptr inbounds nuw %"class.llvm::MCInstrInfo", ptr %15, i32 0, i32 2
  store ptr %24, ptr %25, align 8
  %26 = load ptr, ptr %12, align 8
  %27 = getelementptr inbounds nuw %"class.llvm::MCInstrInfo", ptr %15, i32 0, i32 3
  store ptr %26, ptr %27, align 8
  %28 = load ptr, ptr %13, align 8
  %29 = getelementptr inbounds nuw %"class.llvm::MCInstrInfo", ptr %15, i32 0, i32 4
  store ptr %28, ptr %29, align 8
  %30 = load i32, ptr %14, align 4
  %31 = getelementptr inbounds nuw %"class.llvm::MCInstrInfo", ptr %15, i32 0, i32 5
  store i32 %30, ptr %31, align 8
  ret void
}

; Function Attrs: mustprogress nounwind uwtable
define internal void @_ZN4llvmL22InitAArch64MCInstrInfoEPNS_11MCInstrInfoE(ptr noundef %0) #0 {
  %2 = alloca ptr, align 8
  store ptr %0, ptr %2, align 8
  %3 = load ptr, ptr %2, align 8
  call void @_ZN4llvm11MCInstrInfo15InitMCInstrInfoEPKNS_11MCInstrDescEPKjPKcPKhPKPFbRNS_6MCInstERKNS_15MCSubtargetInfoERNSt7__cxx1112basic_stringIcSt11char_traitsIcESaIcEEEEj(ptr noundef nonnull align 8 dereferenceable(44) %3, ptr noundef @_ZN4llvm12AArch64DescsE, ptr noundef @_ZN4llvm23AArch64InstrNameIndicesE, ptr noundef @_ZN4llvm20AArch64InstrNameDataE, ptr noundef null, ptr noundef null, i32 noundef 8173)
  ret void
}

; Function Attrs: mustprogress nounwind uwtable
define internal noundef ptr @_ZL24createAArch64MCInstrInfov() #0 {
  %1 = alloca ptr, align 8
  %2 = call noalias noundef nonnull ptr @_Znwm(i64 noundef 48) #13
  call void @llvm.memset.p0.i64(ptr align 16 %2, i8 0, i64 48, i1 false)
  store ptr %2, ptr %1, align 8
  %3 = load ptr, ptr %1, align 8
  call void @_ZN4llvmL22InitAArch64MCInstrInfoEPNS_11MCInstrInfoE(ptr noundef %3)
  %4 = load ptr, ptr %1, align 8
  ret ptr %4
}