; Function Attrs: mustprogress nounwind uwtable
define internal noalias noundef nonnull ptr @_ZL24createAArch64MCInstrInfov() #2 {
  %1 = tail call noalias noundef nonnull dereferenceable(48) ptr @_Znwm(i64 noundef 48) #19
  %2 = getelementptr inbounds nuw i8, ptr %1, i64 32
  tail call void @llvm.memset.p0.i64(ptr noundef nonnull align 16 dereferenceable(48) %2, i8 0, i64 16, i1 false)
  store ptr getelementptr inbounds nuw (i8, ptr @_ZN4llvm12AArch64DescsE, i64 261504), ptr %1, align 8
  %3 = getelementptr inbounds nuw i8, ptr %1, i64 8
  store ptr @_ZN4llvm23AArch64InstrNameIndicesE, ptr %3, align 8
  %4 = getelementptr inbounds nuw i8, ptr %1, i64 16
  store ptr @_ZN4llvm20AArch64InstrNameDataE, ptr %4, align 8
  %5 = getelementptr inbounds nuw i8, ptr %1, i64 24
  %6 = getelementptr inbounds nuw i8, ptr %1, i64 40
  tail call void @llvm.memset.p0.i64(ptr noundef nonnull align 8 dereferenceable(16) %5, i8 0, i64 16, i1 false)
  store i32 8173, ptr %6, align 8
  ret ptr %1
}